; Function Attrs: mustprogress uwtable
define void @_ZN7openvdb5v11_06points14AttributeArrayC2ERKS2_(ptr noundef nonnull align 8 dereferenceable(24) %this, ptr noundef nonnull align 8 dereferenceable(24) %rhs) unnamed_addr #4 align 2 personality ptr @__gxx_personality_v0 {
entry:
  %mMutex = getelementptr inbounds i8, ptr %rhs, i64 9
  %0 = atomicrmw xchg ptr %mMutex, i8 1 seq_cst, align 1
  %1 = and i8 %0, 1
  %tobool3.i.i.not2.i.i.i = icmp eq i8 %1, 0
  br i1 %tobool3.i.i.not2.i.i.i, label %_ZN3tbb6detail2d118unique_scoped_lockINS1_10spin_mutexEEC2ERS3_.exit, label %while.body.i.i.i

while.body.i.i.i:                                 ; preds = %entry, %_ZN3tbb6detail2d014atomic_backoff5pauseEv.exit.i.i.i
  %backoff.sroa.0.03.i.i.i = phi i32 [ %backoff.sroa.0.1.i.i.i, %_ZN3tbb6detail2d014atomic_backoff5pauseEv.exit.i.i.i ], [ 1, %entry ]
  %cmp.i.i.i.i = icmp slt i32 %backoff.sroa.0.03.i.i.i, 17
  br i1 %cmp.i.i.i.i, label %if.then.i.i.i.i, label %if.else.i.i.i.i

if.then.i.i.i.i:                                  ; preds = %while.body.i.i.i
  %cmp1.i.i.i.i.i = icmp sgt i32 %backoff.sroa.0.03.i.i.i, 0
  br i1 %cmp1.i.i.i.i.i, label %while.body.i.i.i.i.i, label %_ZN3tbb6detail2d0L13machine_pauseEi.exit.i.i.i.i

while.body.i.i.i.i.i:                             ; preds = %if.then.i.i.i.i, %while.body.i.i.i.i.i
  %delay.addr.02.i.i.i.i.i = phi i32 [ %dec.i.i.i.i.i, %while.body.i.i.i.i.i ], [ %backoff.sroa.0.03.i.i.i, %if.then.i.i.i.i ]
  %dec.i.i.i.i.i = add nsw i32 %delay.addr.02.i.i.i.i.i, -1
  tail call void @llvm.x86.sse2.pause()
  %cmp.i.i.i.i.i = icmp ugt i32 %delay.addr.02.i.i.i.i.i, 1
  br i1 %cmp.i.i.i.i.i, label %while.body.i.i.i.i.i, label %_ZN3tbb6detail2d0L13machine_pauseEi.exit.i.i.i.i, !llvm.loop !5

_ZN3tbb6detail2d0L13machine_pauseEi.exit.i.i.i.i: ; preds = %while.body.i.i.i.i.i, %if.then.i.i.i.i
  %mul.i.i.i.i = shl nsw i32 %backoff.sroa.0.03.i.i.i, 1
  br label %_ZN3tbb6detail2d014atomic_backoff5pauseEv.exit.i.i.i

if.else.i.i.i.i:                                  ; preds = %while.body.i.i.i
  %call.i.i.i.i.i.i = tail call noundef i32 @sched_yield() #10
  br label %_ZN3tbb6detail2d014atomic_backoff5pauseEv.exit.i.i.i

_ZN3tbb6detail2d014atomic_backoff5pauseEv.exit.i.i.i: ; preds = %if.else.i.i.i.i, %_ZN3tbb6detail2d0L13machine_pauseEi.exit.i.i.i.i
  %backoff.sroa.0.1.i.i.i = phi i32 [ %mul.i.i.i.i, %_ZN3tbb6detail2d0L13machine_pauseEi.exit.i.i.i.i ], [ %backoff.sroa.0.03.i.i.i, %if.else.i.i.i.i ]
  %2 = atomicrmw xchg ptr %mMutex, i8 1 seq_cst, align 1
  %3 = and i8 %2, 1
  %tobool3.i.i.not.i.i.i = icmp eq i8 %3, 0
  br i1 %tobool3.i.i.not.i.i.i, label %_ZN3tbb6detail2d118unique_scoped_lockINS1_10spin_mutexEEC2ERS3_.exit, label %while.body.i.i.i, !llvm.loop !7

_ZN3tbb6detail2d118unique_scoped_lockINS1_10spin_mutexEEC2ERS3_.exit: ; preds = %_ZN3tbb6detail2d014atomic_backoff5pauseEv.exit.i.i.i, %entry
  invoke void @_ZN7openvdb5v11_06points14AttributeArrayC2ERKS2_RKN3tbb6detail2d118unique_scoped_lockINS7_10spin_mutexEEE(ptr noundef nonnull align 8 dereferenceable(24) %this, ptr noundef nonnull align 8 dereferenceable(24) %rhs, ptr nonnull align 8 poison)
          to label %if.then.i unwind label %lpad

if.then.i:                                        ; preds = %_ZN3tbb6detail2d118unique_scoped_lockINS1_10spin_mutexEEC2ERS3_.exit
  store atomic i8 0, ptr %mMutex release, align 1
  ret void

lpad:                                             ; preds = %_ZN3tbb6detail2d118unique_scoped_lockINS1_10spin_mutexEEC2ERS3_.exit
  %4 = landingpad { ptr, i32 }
          cleanup
  store atomic i8 0, ptr %mMutex release, align 1
  resume { ptr, i32 } %4
}